ARM GAS  C:\Users\adivd\AppData\Local\Temp\ccYLNXaa.s 			page 1


   1              		.cpu cortex-m3
   2              		.arch armv7-m
   3              		.fpu softvfp
   4              		.eabi_attribute 20, 1
   5              		.eabi_attribute 21, 1
   6              		.eabi_attribute 23, 3
   7              		.eabi_attribute 24, 1
   8              		.eabi_attribute 25, 1
   9              		.eabi_attribute 26, 1
  10              		.eabi_attribute 30, 1
  11              		.eabi_attribute 34, 1
  12              		.eabi_attribute 18, 4
  13              		.file	"SRV_MotorControl_main.c"
  14              		.text
  15              	.Ltext0:
  16              		.cfi_sections	.debug_frame
  17              		.section	.text.motorControl_init,"ax",%progbits
  18              		.align	1
  19              		.global	motorControl_init
  20              		.syntax unified
  21              		.thumb
  22              		.thumb_func
  24              	motorControl_init:
  25              	.LFB68:
  26              		.file 1 "SRV_MotorControl/SRC/SRV_MotorControl_main.c"
   1:SRV_MotorControl/SRC/SRV_MotorControl_main.c **** /**
   2:SRV_MotorControl/SRC/SRV_MotorControl_main.c ****  * @file SRV_MotorControl_main.c
   3:SRV_MotorControl/SRC/SRV_MotorControl_main.c ****  * @author Costea Adrian
   4:SRV_MotorControl/SRC/SRV_MotorControl_main.c ****  * @brief main file for motor control
   5:SRV_MotorControl/SRC/SRV_MotorControl_main.c ****  * @version 0.1
   6:SRV_MotorControl/SRC/SRV_MotorControl_main.c ****  * @date 2022-11-03
   7:SRV_MotorControl/SRC/SRV_MotorControl_main.c ****  * 
   8:SRV_MotorControl/SRC/SRV_MotorControl_main.c ****  * @copyright Copyright (c) 2022
   9:SRV_MotorControl/SRC/SRV_MotorControl_main.c ****  * 
  10:SRV_MotorControl/SRC/SRV_MotorControl_main.c ****  */
  11:SRV_MotorControl/SRC/SRV_MotorControl_main.c **** 
  12:SRV_MotorControl/SRC/SRV_MotorControl_main.c **** /*
  13:SRV_MotorControl/SRC/SRV_MotorControl_main.c ****     GLOBAL INCLUDE FILES
  14:SRV_MotorControl/SRC/SRV_MotorControl_main.c **** */
  15:SRV_MotorControl/SRC/SRV_MotorControl_main.c **** 
  16:SRV_MotorControl/SRC/SRV_MotorControl_main.c **** #include <SRV_MotorControl_main.h>
  17:SRV_MotorControl/SRC/SRV_MotorControl_main.c **** 
  18:SRV_MotorControl/SRC/SRV_MotorControl_main.c **** /*
  19:SRV_MotorControl/SRC/SRV_MotorControl_main.c ****     DEFINES
  20:SRV_MotorControl/SRC/SRV_MotorControl_main.c **** */
  21:SRV_MotorControl/SRC/SRV_MotorControl_main.c **** 
  22:SRV_MotorControl/SRC/SRV_MotorControl_main.c **** /*
  23:SRV_MotorControl/SRC/SRV_MotorControl_main.c ****     VARIABLES
  24:SRV_MotorControl/SRC/SRV_MotorControl_main.c **** */
  25:SRV_MotorControl/SRC/SRV_MotorControl_main.c **** SRV_MotorControl_def_motor connectedMotors[2];
  26:SRV_MotorControl/SRC/SRV_MotorControl_main.c **** /*
  27:SRV_MotorControl/SRC/SRV_MotorControl_main.c ****     FUNCTIONS
  28:SRV_MotorControl/SRC/SRV_MotorControl_main.c **** */
  29:SRV_MotorControl/SRC/SRV_MotorControl_main.c **** 
  30:SRV_MotorControl/SRC/SRV_MotorControl_main.c **** /**
  31:SRV_MotorControl/SRC/SRV_MotorControl_main.c ****  * @brief Initialization function for srv_motorControl
  32:SRV_MotorControl/SRC/SRV_MotorControl_main.c ****  * 
ARM GAS  C:\Users\adivd\AppData\Local\Temp\ccYLNXaa.s 			page 2


  33:SRV_MotorControl/SRC/SRV_MotorControl_main.c ****  * @return 1 if initialization succesfull
  34:SRV_MotorControl/SRC/SRV_MotorControl_main.c ****  * @return 0 if initialization not succesfull
  35:SRV_MotorControl/SRC/SRV_MotorControl_main.c ****  */
  36:SRV_MotorControl/SRC/SRV_MotorControl_main.c ****  uint8_t motorControl_init(){
  27              		.loc 1 36 29 view -0
  28              		.cfi_startproc
  29              		@ args = 0, pretend = 0, frame = 0
  30              		@ frame_needed = 0, uses_anonymous_args = 0
  31 0000 10B5     		push	{r4, lr}
  32              	.LCFI0:
  33              		.cfi_def_cfa_offset 8
  34              		.cfi_offset 4, -8
  35              		.cfi_offset 14, -4
  37:SRV_MotorControl/SRC/SRV_MotorControl_main.c ****     uint8_t initSuccess;
  36              		.loc 1 37 5 view .LVU1
  38:SRV_MotorControl/SRC/SRV_MotorControl_main.c ****     initSuccess = 0;
  37              		.loc 1 38 5 view .LVU2
  38              	.LVL0:
  39:SRV_MotorControl/SRC/SRV_MotorControl_main.c **** 
  40:SRV_MotorControl/SRC/SRV_MotorControl_main.c ****     //initialize all connected motors
  41:SRV_MotorControl/SRC/SRV_MotorControl_main.c ****     connectedMotors[0].motor_dirPin = Motor1_dirPin;
  39              		.loc 1 41 5 view .LVU3
  40              		.loc 1 41 37 is_stmt 0 view .LVU4
  41 0002 074B     		ldr	r3, .L3
  42 0004 0821     		movs	r1, #8
  43 0006 1980     		strh	r1, [r3]	@ movhi
  42:SRV_MotorControl/SRC/SRV_MotorControl_main.c ****     connectedMotors[0].motor_dirPort = Motor1_dirPort;
  44              		.loc 1 42 5 is_stmt 1 view .LVU5
  45              		.loc 1 42 38 is_stmt 0 view .LVU6
  46 0008 0024     		movs	r4, #0
  47 000a 9C70     		strb	r4, [r3, #2]
  43:SRV_MotorControl/SRC/SRV_MotorControl_main.c **** 
  44:SRV_MotorControl/SRC/SRV_MotorControl_main.c ****     connectedMotors[0].motor_stepPin = Motor1_stepPin;
  48              		.loc 1 44 5 is_stmt 1 view .LVU7
  49              		.loc 1 44 38 is_stmt 0 view .LVU8
  50 000c 1022     		movs	r2, #16
  51 000e 9A80     		strh	r2, [r3, #4]	@ movhi
  45:SRV_MotorControl/SRC/SRV_MotorControl_main.c ****     connectedMotors[0].motor_stepPort = Motor1_stepPort;
  52              		.loc 1 45 5 is_stmt 1 view .LVU9
  53              		.loc 1 45 39 is_stmt 0 view .LVU10
  54 0010 9C71     		strb	r4, [r3, #6]
  46:SRV_MotorControl/SRC/SRV_MotorControl_main.c **** 
  47:SRV_MotorControl/SRC/SRV_MotorControl_main.c ****     HAL_GPIO_WritePin(GPIOA,GPIO_PIN_3,GPIO_PIN_SET);
  55              		.loc 1 47 5 is_stmt 1 view .LVU11
  56 0012 0122     		movs	r2, #1
  57 0014 0348     		ldr	r0, .L3+4
  58 0016 FFF7FEFF 		bl	HAL_GPIO_WritePin
  59              	.LVL1:
  48:SRV_MotorControl/SRC/SRV_MotorControl_main.c **** 
  49:SRV_MotorControl/SRC/SRV_MotorControl_main.c ****     return initSuccess;
  60              		.loc 1 49 5 view .LVU12
  50:SRV_MotorControl/SRC/SRV_MotorControl_main.c **** }
  61              		.loc 1 50 1 is_stmt 0 view .LVU13
  62 001a 2046     		mov	r0, r4
  63 001c 10BD     		pop	{r4, pc}
  64              	.L4:
  65 001e 00BF     		.align	2
ARM GAS  C:\Users\adivd\AppData\Local\Temp\ccYLNXaa.s 			page 3


  66              	.L3:
  67 0020 00000000 		.word	.LANCHOR0
  68 0024 00080140 		.word	1073809408
  69              		.cfi_endproc
  70              	.LFE68:
  72              		.section	.text.motorControl_main,"ax",%progbits
  73              		.align	1
  74              		.global	motorControl_main
  75              		.syntax unified
  76              		.thumb
  77              		.thumb_func
  79              	motorControl_main:
  80              	.LFB69:
  51:SRV_MotorControl/SRC/SRV_MotorControl_main.c **** 
  52:SRV_MotorControl/SRC/SRV_MotorControl_main.c **** /**
  53:SRV_MotorControl/SRC/SRV_MotorControl_main.c ****  * @brief Main function for motor controll
  54:SRV_MotorControl/SRC/SRV_MotorControl_main.c ****  * 
  55:SRV_MotorControl/SRC/SRV_MotorControl_main.c ****  */
  56:SRV_MotorControl/SRC/SRV_MotorControl_main.c **** void motorControl_main(){
  81              		.loc 1 56 25 is_stmt 1 view -0
  82              		.cfi_startproc
  83              		@ args = 0, pretend = 0, frame = 0
  84              		@ frame_needed = 0, uses_anonymous_args = 0
  85 0000 10B5     		push	{r4, lr}
  86              	.LCFI1:
  87              		.cfi_def_cfa_offset 8
  88              		.cfi_offset 4, -8
  89              		.cfi_offset 14, -4
  57:SRV_MotorControl/SRC/SRV_MotorControl_main.c ****     HAL_GPIO_WritePin(GPIOA,GPIO_PIN_4,GPIO_PIN_SET);
  90              		.loc 1 57 5 view .LVU15
  91 0002 074C     		ldr	r4, .L7
  92 0004 0122     		movs	r2, #1
  93 0006 1021     		movs	r1, #16
  94 0008 2046     		mov	r0, r4
  95 000a FFF7FEFF 		bl	HAL_GPIO_WritePin
  96              	.LVL2:
  58:SRV_MotorControl/SRC/SRV_MotorControl_main.c ****     HAL_Delay(10);
  97              		.loc 1 58 5 view .LVU16
  98 000e 0A20     		movs	r0, #10
  99 0010 FFF7FEFF 		bl	HAL_Delay
 100              	.LVL3:
  59:SRV_MotorControl/SRC/SRV_MotorControl_main.c ****     HAL_GPIO_WritePin(GPIOA,GPIO_PIN_4,GPIO_PIN_RESET);
 101              		.loc 1 59 5 view .LVU17
 102 0014 0022     		movs	r2, #0
 103 0016 1021     		movs	r1, #16
 104 0018 2046     		mov	r0, r4
 105 001a FFF7FEFF 		bl	HAL_GPIO_WritePin
 106              	.LVL4:
  60:SRV_MotorControl/SRC/SRV_MotorControl_main.c **** }...
 107              		.loc 1 60 1 is_stmt 0 view .LVU18
 108 001e 10BD     		pop	{r4, pc}
 109              	.L8:
 110              		.align	2
 111              	.L7:
 112 0020 00080140 		.word	1073809408
 113              		.cfi_endproc
 114              	.LFE69:
ARM GAS  C:\Users\adivd\AppData\Local\Temp\ccYLNXaa.s 			page 4


 116              		.global	connectedMotors
 117              		.section	.bss.connectedMotors,"aw",%nobits
 118              		.align	2
 119              		.set	.LANCHOR0,. + 0
 122              	connectedMotors:
 123 0000 00000000 		.space	20
 123      00000000 
 123      00000000 
 123      00000000 
 123      00000000 
 124              		.text
 125              	.Letext0:
 126              		.file 2 "c:\\program files (x86)\\gnu arm embedded toolchain\\10 2021.10\\arm-none-eabi\\include\\
 127              		.file 3 "c:\\program files (x86)\\gnu arm embedded toolchain\\10 2021.10\\arm-none-eabi\\include\\
 128              		.file 4 "Drivers/CMSIS/Device/ST/STM32F1xx/Include/stm32f103xb.h"
 129              		.file 5 "SRV_MotorControl/API/SRV_MotorControl_def.h"
 130              		.file 6 "Drivers/STM32F1xx_HAL_Driver/Inc/stm32f1xx_hal_gpio.h"
 131              		.file 7 "Drivers/STM32F1xx_HAL_Driver/Inc/stm32f1xx_hal.h"
ARM GAS  C:\Users\adivd\AppData\Local\Temp\ccYLNXaa.s 			page 5


DEFINED SYMBOLS
                            *ABS*:00000000 SRV_MotorControl_main.c
C:\Users\adivd\AppData\Local\Temp\ccYLNXaa.s:18     .text.motorControl_init:00000000 $t
C:\Users\adivd\AppData\Local\Temp\ccYLNXaa.s:24     .text.motorControl_init:00000000 motorControl_init
C:\Users\adivd\AppData\Local\Temp\ccYLNXaa.s:67     .text.motorControl_init:00000020 $d
C:\Users\adivd\AppData\Local\Temp\ccYLNXaa.s:73     .text.motorControl_main:00000000 $t
C:\Users\adivd\AppData\Local\Temp\ccYLNXaa.s:79     .text.motorControl_main:00000000 motorControl_main
C:\Users\adivd\AppData\Local\Temp\ccYLNXaa.s:112    .text.motorControl_main:00000020 $d
C:\Users\adivd\AppData\Local\Temp\ccYLNXaa.s:122    .bss.connectedMotors:00000000 connectedMotors
C:\Users\adivd\AppData\Local\Temp\ccYLNXaa.s:118    .bss.connectedMotors:00000000 $d

UNDEFINED SYMBOLS
HAL_GPIO_WritePin
HAL_Delay
